ARM GAS  C:\Users\jissyai\AppData\Local\Temp\cceCgZrP.s 			page 1


   1              		.syntax unified
   2              		.cpu cortex-m3
   3              		.fpu softvfp
   4              		.eabi_attribute 20, 1
   5              		.eabi_attribute 21, 1
   6              		.eabi_attribute 23, 3
   7              		.eabi_attribute 24, 1
   8              		.eabi_attribute 25, 1
   9              		.eabi_attribute 26, 1
  10              		.eabi_attribute 30, 6
  11              		.eabi_attribute 34, 1
  12              		.eabi_attribute 18, 4
  13              		.thumb
  14              		.file	"main.c"
  15              		.text
  16              	.Ltext0:
  17              		.cfi_sections	.debug_frame
  18              		.global _printf_float
  19              		.thumb
  20              		.global	parity
  21              		.section	.rodata
  22              		.align	2
  23              	.LC0:
  24 0000 4E6F6E65 		.ascii	"None\000"
  24      00
  25 0005 000000   		.align	2
  26              	.LC1:
  27 0008 4F646400 		.ascii	"Odd\000"
  28              		.align	2
  29              	.LC2:
  30 000c 4576656E 		.ascii	"Even\000"
  30      00
  31 0011 000000   		.align	2
  32              	.LC3:
  33 0014 4D61726B 		.ascii	"Mark\000"
  33      00
  34 0019 000000   		.align	2
  35              	.LC4:
  36 001c 53706163 		.ascii	"Space\000"
  36      6500
  37              		.data
  38              		.align	2
  39              		.type	parity, %object
  40              		.size	parity, 20
  41              	parity:
  42 0000 00000000 		.word	.LC0
  43 0004 08000000 		.word	.LC1
  44 0008 0C000000 		.word	.LC2
  45 000c 14000000 		.word	.LC3
  46 0010 1C000000 		.word	.LC4
  47              		.global	stop
  48              		.section	.rodata
  49 0022 0000     		.align	2
  50              	.LC5:
  51 0024 3100     		.ascii	"1\000"
  52 0026 0000     		.align	2
  53              	.LC6:
ARM GAS  C:\Users\jissyai\AppData\Local\Temp\cceCgZrP.s 			page 2


  54 0028 312E3500 		.ascii	"1.5\000"
  55              		.align	2
  56              	.LC7:
  57 002c 3200     		.ascii	"2\000"
  58              		.data
  59              		.align	2
  60              		.type	stop, %object
  61              		.size	stop, 12
  62              	stop:
  63 0014 24000000 		.word	.LC5
  64 0018 28000000 		.word	.LC6
  65 001c 2C000000 		.word	.LC7
  66              		.section	.rodata
  67 002e 0000     		.align	2
  68              	.LC8:
  69 0030 42523A25 		.ascii	"BR:%4ld,DB:%d\000"
  69      346C642C 
  69      44423A25 
  69      6400
  70 003e 0000     		.align	2
  71              	.LC9:
  72 0040 20202020 		.ascii	"                    \000"
  72      20202020 
  72      20202020 
  72      20202020 
  72      20202020 
  73 0055 000000   		.align	2
  74              	.LC10:
  75 0058 53423A25 		.ascii	"SB:%s,Parity:%s\000"
  75      732C5061 
  75      72697479 
  75      3A257300 
  76              		.align	2
  77              	.LC11:
  78 0068 4F4E00   		.ascii	"ON\000"
  79 006b 00       		.align	2
  80              	.LC12:
  81 006c 4F464600 		.ascii	"OFF\000"
  82              		.align	2
  83              	.LC13:
  84 0070 4454523A 		.ascii	"DTR:%s,RTS:%s\000"
  84      25732C52 
  84      54533A25 
  84      7300
  85 007e 0000     		.align	2
  86              	.LC14:
  87 0080 41444320 		.ascii	"ADC input volt = \000"
  87      696E7075 
  87      7420766F 
  87      6C74203D 
  87      2000
  88 0092 0000     		.align	2
  89              	.LC15:
  90 0094 25376C64 		.ascii	"%7ld\000"
  90      00
  91 0099 000000   		.align	2
  92              	.LC16:
ARM GAS  C:\Users\jissyai\AppData\Local\Temp\cceCgZrP.s 			page 3


  93 009c 755600   		.ascii	"uV\000"
  94 009f 00       		.section	.text.main,"ax",%progbits
  95              		.align	2
  96              		.global	main
  97              		.thumb
  98              		.thumb_func
  99              		.type	main, %function
 100              	main:
 101              	.LFB56:
 102              		.file 1 ".\\main.c"
   1:.\main.c      **** ﻿#include <device.h>
   2:.\main.c      **** #include "stdio.h"
   3:.\main.c      **** #include "stdlib.h"
   4:.\main.c      **** 
   5:.\main.c      **** #define MAX_SAMPLE	((uint8)128)
   6:.\main.c      **** #define SIGNAL_SLOPE	1000
   7:.\main.c      **** #define DIV	7
   8:.\main.c      **** 
   9:.\main.c      **** #if defined (__GNUC__)
  10:.\main.c      ****     /* Add an explicit reference to the floating point printf library */
  11:.\main.c      ****     /* to allow the usage of floating point conversion specifiers. */
  12:.\main.c      ****     /* This is not linked in by default with the newlib-nano library. */
  13:.\main.c      ****     asm (".global _printf_float");
  14:.\main.c      **** #endif
  15:.\main.c      **** 
  16:.\main.c      **** /* The size of the buffer is equal to maximum packet size of the 
  17:.\main.c      **** *  IN and OUT bulk endpoints. 
  18:.\main.c      **** */
  19:.\main.c      **** #define BUFFER_LEN  64u
  20:.\main.c      **** 
  21:.\main.c      **** char8 *parity[] = { "None", "Odd", "Even", "Mark", "Space" };
  22:.\main.c      **** char8 *stop[] = { "1", "1.5", "2" };
  23:.\main.c      **** 
  24:.\main.c      **** int main(void)
  25:.\main.c      **** {
 103              		.loc 1 25 0
 104              		.cfi_startproc
 105              		@ args = 0, pretend = 0, frame = 584
 106              		@ frame_needed = 1, uses_anonymous_args = 0
 107 0000 90B5     		push	{r4, r7, lr}
 108              	.LCFI0:
 109              		.cfi_def_cfa_offset 12
 110              		.cfi_offset 4, -12
 111              		.cfi_offset 7, -8
 112              		.cfi_offset 14, -4
 113 0002 ADF5137D 		sub	sp, sp, #588
 114              	.LCFI1:
 115              		.cfi_def_cfa_offset 600
 116 0006 00AF     		add	r7, sp, #0
 117              	.LCFI2:
 118              		.cfi_def_cfa_register 7
  26:.\main.c      ****     uint8 i;
  27:.\main.c      ****     
  28:.\main.c      ****     int32 adcCounts[MAX_SAMPLE] = {0};
 119              		.loc 1 28 0
 120 0008 07F12803 		add	r3, r7, #40
 121 000c 1A46     		mov	r2, r3
ARM GAS  C:\Users\jissyai\AppData\Local\Temp\cceCgZrP.s 			page 4


 122 000e 4FF40073 		mov	r3, #512
 123 0012 1046     		mov	r0, r2
 124 0014 4FF00001 		mov	r1, #0
 125 0018 1A46     		mov	r2, r3
 126 001a FFF7FEFF 		bl	memset
  29:.\main.c      ****     int32 result = 0;
 127              		.loc 1 29 0
 128 001e 4FF00003 		mov	r3, #0
 129 0022 C7F83432 		str	r3, [r7, #564]
  30:.\main.c      ****     int32 sum = 0;
 130              		.loc 1 30 0
 131 0026 4FF00003 		mov	r3, #0
 132 002a C7F84032 		str	r3, [r7, #576]
  31:.\main.c      ****     int16 diff = 0;
 133              		.loc 1 31 0
 134 002e 4FF00003 		mov	r3, #0
 135 0032 A7F83232 		strh	r3, [r7, #562]	@ movhi
  32:.\main.c      ****     int32 microVolts = 0;
 136              		.loc 1 32 0
 137 0036 4FF00003 		mov	r3, #0
 138 003a C7F82C32 		str	r3, [r7, #556]
  33:.\main.c      ****     int32 averageCounts = 0;
 139              		.loc 1 33 0
 140 003e 4FF00003 		mov	r3, #0
 141 0042 C7F83C32 		str	r3, [r7, #572]
  34:.\main.c      ****     uint8 index = 0;
 142              		.loc 1 34 0
 143 0046 4FF00003 		mov	r3, #0
 144 004a 87F83B32 		strb	r3, [r7, #571]
  35:.\main.c      ****     
  36:.\main.c      ****     char displayStr[15] = {'\0'};        
 145              		.loc 1 36 0
 146 004e 07F11803 		add	r3, r7, #24
 147 0052 4FF00002 		mov	r2, #0
 148 0056 1A60     		str	r2, [r3, #0]
 149 0058 03F10403 		add	r3, r3, #4
 150 005c 4FF00002 		mov	r2, #0
 151 0060 1A60     		str	r2, [r3, #0]
 152 0062 03F10403 		add	r3, r3, #4
 153 0066 4FF00002 		mov	r2, #0
 154 006a 1A60     		str	r2, [r3, #0]
 155 006c 03F10403 		add	r3, r3, #4
 156 0070 4FF00002 		mov	r2, #0
 157 0074 1A80     		strh	r2, [r3, #0]	@ movhi
 158 0076 03F10203 		add	r3, r3, #2
 159 007a 4FF00002 		mov	r2, #0
 160 007e 1A70     		strb	r2, [r3, #0]
 161 0080 03F10103 		add	r3, r3, #1
  37:.\main.c      **** 
  38:.\main.c      ****     char8 lineStr[20];
  39:.\main.c      ****     uint8 state;
  40:.\main.c      **** 	
  41:.\main.c      ****     CYGlobalIntEnable;
 162              		.loc 1 41 0
 163              	@ 41 ".\main.c" 1
 164 0084 62B6     		CPSIE   i
 165              	@ 0 "" 2
ARM GAS  C:\Users\jissyai\AppData\Local\Temp\cceCgZrP.s 			page 5


  42:.\main.c      **** 
  43:.\main.c      **** 	/* Start USBUART */
  44:.\main.c      **** 	USBUART_1_Start(0u, USBUART_1_3V_OPERATION);
 166              		.loc 1 44 0
 167              		.thumb
 168 0086 4FF00000 		mov	r0, #0
 169 008a 4FF00001 		mov	r1, #0
 170 008e FFF7FEFF 		bl	USBUART_1_Start
  45:.\main.c      **** 	
  46:.\main.c      ****     /* Start ADC */
  47:.\main.c      ****     ADC_Start();
 171              		.loc 1 47 0
 172 0092 FFF7FEFF 		bl	ADC_Start
  48:.\main.c      ****     ADC_StartConvert();
 173              		.loc 1 48 0
 174 0096 FFF7FEFF 		bl	ADC_StartConvert
  49:.\main.c      **** 
  50:.\main.c      ****     /* Start LCD */
  51:.\main.c      ****     LCD_Start();
 175              		.loc 1 51 0
 176 009a FFF7FEFF 		bl	LCD_Start
  52:.\main.c      ****     
  53:.\main.c      **** 	while(!USBUART_1_GetConfiguration());
 177              		.loc 1 53 0
 178 009e 00BF     		nop
 179              	.L2:
 180              		.loc 1 53 0 is_stmt 0 discriminator 1
 181 00a0 FFF7FEFF 		bl	USBUART_1_GetConfiguration
 182 00a4 0346     		mov	r3, r0
 183 00a6 002B     		cmp	r3, #0
 184 00a8 FAD0     		beq	.L2
  54:.\main.c      **** 	USBUART_1_CDC_Init();
 185              		.loc 1 54 0 is_stmt 1
 186 00aa FFF7FEFF 		bl	USBUART_1_CDC_Init
  55:.\main.c      **** 	
  56:.\main.c      ****     /* Read one sample from the ADC and initialize the filter */
  57:.\main.c      ****     ADC_IsEndConversion(ADC_WAIT_FOR_RESULT);
 187              		.loc 1 57 0
 188 00ae 4FF00000 		mov	r0, #0
 189 00b2 FFF7FEFF 		bl	ADC_IsEndConversion
  58:.\main.c      ****     result = ADC_GetResult32();
 190              		.loc 1 58 0
 191 00b6 FFF7FEFF 		bl	ADC_GetResult32
 192 00ba C7F83402 		str	r0, [r7, #564]
  59:.\main.c      ****     
  60:.\main.c      ****     for(i = 0; i < MAX_SAMPLE; i++)
 193              		.loc 1 60 0
 194 00be 4FF00003 		mov	r3, #0
 195 00c2 87F84732 		strb	r3, [r7, #583]
 196 00c6 0DE0     		b	.L3
 197              	.L4:
  61:.\main.c      ****     {
  62:.\main.c      ****         adcCounts[i] = result;
 198              		.loc 1 62 0 discriminator 2
 199 00c8 97F84722 		ldrb	r2, [r7, #583]	@ zero_extendqisi2
 200 00cc 07F12803 		add	r3, r7, #40
 201 00d0 D7F83412 		ldr	r1, [r7, #564]
ARM GAS  C:\Users\jissyai\AppData\Local\Temp\cceCgZrP.s 			page 6


 202 00d4 43F82210 		str	r1, [r3, r2, lsl #2]
  60:.\main.c      ****     for(i = 0; i < MAX_SAMPLE; i++)
 203              		.loc 1 60 0 discriminator 2
 204 00d8 97F84732 		ldrb	r3, [r7, #583]
 205 00dc 03F10103 		add	r3, r3, #1
 206 00e0 87F84732 		strb	r3, [r7, #583]
 207              	.L3:
  60:.\main.c      ****     for(i = 0; i < MAX_SAMPLE; i++)
 208              		.loc 1 60 0 is_stmt 0 discriminator 1
 209 00e4 97F84732 		ldrb	r3, [r7, #583]	@ zero_extendqisi2
 210 00e8 5BB2     		sxtb	r3, r3
 211 00ea 002B     		cmp	r3, #0
 212 00ec ECDA     		bge	.L4
  63:.\main.c      ****     }
  64:.\main.c      ****     
  65:.\main.c      ****     sum = result << DIV;
 213              		.loc 1 65 0 is_stmt 1
 214 00ee D7F83432 		ldr	r3, [r7, #564]
 215 00f2 4FEAC313 		lsl	r3, r3, #7
 216 00f6 C7F84032 		str	r3, [r7, #576]
  66:.\main.c      ****     
  67:.\main.c      ****     averageCounts = result;
 217              		.loc 1 67 0
 218 00fa D7F83432 		ldr	r3, [r7, #564]
 219 00fe C7F83C32 		str	r3, [r7, #572]
 220 0102 00E0     		b	.L16
 221              	.L17:
  68:.\main.c      ****     
  69:.\main.c      ****     for(;;)
  70:.\main.c      ****     {
  71:.\main.c      **** 		state = USBUART_1_IsLineChanged();
  72:.\main.c      ****         if(state != 0u)
  73:.\main.c      ****         {  
  74:.\main.c      ****             if(state & USBUART_1_LINE_CODING_CHANGED)
  75:.\main.c      ****             {
  76:.\main.c      ****                 sprintf(lineStr,"BR:%4ld,DB:%d",USBUART_1_GetDTERate(),(uint16)USBUART_1_GetDataBit
  77:.\main.c      ****                 LCD_Position(0u, 0u);
  78:.\main.c      ****                 LCD_PrintString("                    ");
  79:.\main.c      ****                 LCD_Position(0u, 0u);
  80:.\main.c      ****                 LCD_PrintString(lineStr);
  81:.\main.c      ****                 sprintf(lineStr,"SB:%s,Parity:%s", stop[(uint16)USBUART_1_GetCharFormat()], \
  82:.\main.c      ****                                                      parity[(uint16)USBUART_1_GetParityType()]);
  83:.\main.c      ****                 LCD_Position(1u, 0u);
  84:.\main.c      ****                 LCD_PrintString("                    ");
  85:.\main.c      ****                 LCD_Position(1u, 0u);
  86:.\main.c      ****                 LCD_PrintString(lineStr);
  87:.\main.c      ****             }
  88:.\main.c      ****             if(state & USBUART_1_LINE_CONTROL_CHANGED)
  89:.\main.c      ****             {   
  90:.\main.c      ****                 state = USBUART_1_GetLineControl();
  91:.\main.c      ****                 sprintf(lineStr,"DTR:%s,RTS:%s",  (state & USBUART_1_LINE_CONTROL_DTR) ? "ON" : "OF
  92:.\main.c      ****                                                     (state & USBUART_1_LINE_CONTROL_RTS) ? "ON" : "
  93:.\main.c      ****                 LCD_Position(1u, 0u);
  94:.\main.c      ****                 LCD_PrintString("                    ");
  95:.\main.c      ****                 LCD_Position(1u, 0u);
  96:.\main.c      ****                 LCD_PrintString(lineStr);
  97:.\main.c      ****             
ARM GAS  C:\Users\jissyai\AppData\Local\Temp\cceCgZrP.s 			page 7


  98:.\main.c      ****             }
  99:.\main.c      ****         }
 100:.\main.c      **** 		
 101:.\main.c      ****         ADC_IsEndConversion(ADC_WAIT_FOR_RESULT);
 102:.\main.c      ****         result = ADC_GetResult32();
 103:.\main.c      ****         
 104:.\main.c      ****         diff = abs(averageCounts - result);
 105:.\main.c      **** 
 106:.\main.c      ****         if(diff > SIGNAL_SLOPE)
 107:.\main.c      ****         {
 108:.\main.c      ****             for(i = 0; i < MAX_SAMPLE; i++)
 109:.\main.c      ****             {
 110:.\main.c      ****                 adcCounts[i] = result;
 111:.\main.c      ****             }
 112:.\main.c      ****             
 113:.\main.c      ****             sum = result << DIV;
 114:.\main.c      ****     
 115:.\main.c      ****             averageCounts = result;
 116:.\main.c      ****             index = 0;
 117:.\main.c      ****         }
 118:.\main.c      ****         
 119:.\main.c      ****         else
 120:.\main.c      ****         {
 121:.\main.c      ****             sum = sum - adcCounts[index];
 122:.\main.c      ****             sum = sum + result;
 123:.\main.c      ****             averageCounts = sum >> DIV;
 124:.\main.c      ****             
 125:.\main.c      ****             adcCounts[index] = result;
 126:.\main.c      ****             index++;
 127:.\main.c      ****             if (index == MAX_SAMPLE)
 128:.\main.c      ****             {
 129:.\main.c      ****                 index = 0;
 130:.\main.c      ****             }
 131:.\main.c      ****         }
 132:.\main.c      ****         microVolts = ADC_CountsTo_uVolts(averageCounts);
 133:.\main.c      ****             
 134:.\main.c      ****         /* Convert micro volts to string and display */
 135:.\main.c      **** 		if(SW_Read()==0){
 136:.\main.c      **** 			USBUART_1_PutString("ADC input volt = ");
 137:.\main.c      **** 			CyDelay(10);
 138:.\main.c      **** 			sprintf(displayStr,"%7ld",microVolts);
 139:.\main.c      **** 			USBUART_1_PutString(displayStr);
 140:.\main.c      **** 			CyDelay(10);
 141:.\main.c      **** 			USBUART_1_PutString("uV");
 142:.\main.c      **** 			CyDelay(10);
 143:.\main.c      **** 			USBUART_1_PutCRLF();
 144:.\main.c      **** 			CyDelay(1000);
 145:.\main.c      **** 		}
 146:.\main.c      ****     }	
 222              		.loc 1 146 0
 223 0104 00BF     		nop
 224              	.L16:
  71:.\main.c      **** 		state = USBUART_1_IsLineChanged();
 225              		.loc 1 71 0
 226 0106 FFF7FEFF 		bl	USBUART_1_IsLineChanged
 227 010a 0346     		mov	r3, r0
 228 010c 87F82B32 		strb	r3, [r7, #555]
ARM GAS  C:\Users\jissyai\AppData\Local\Temp\cceCgZrP.s 			page 8


  72:.\main.c      ****         if(state != 0u)
 229              		.loc 1 72 0
 230 0110 97F82B32 		ldrb	r3, [r7, #555]	@ zero_extendqisi2
 231 0114 002B     		cmp	r3, #0
 232 0116 00F0AB80 		beq	.L5
  74:.\main.c      ****             if(state & USBUART_1_LINE_CODING_CHANGED)
 233              		.loc 1 74 0
 234 011a 97F82B32 		ldrb	r3, [r7, #555]	@ zero_extendqisi2
 235 011e 03F00103 		and	r3, r3, #1
 236 0122 002B     		cmp	r3, #0
 237 0124 5BD0     		beq	.L6
  76:.\main.c      ****                 sprintf(lineStr,"BR:%4ld,DB:%d",USBUART_1_GetDTERate(),(uint16)USBUART_1_GetDataBit
 238              		.loc 1 76 0
 239 0126 FFF7FEFF 		bl	USBUART_1_GetDTERate
 240 012a 0446     		mov	r4, r0
 241 012c FFF7FEFF 		bl	USBUART_1_GetDataBits
 242 0130 0346     		mov	r3, r0
 243 0132 07F10402 		add	r2, r7, #4
 244 0136 1046     		mov	r0, r2
 245 0138 40F20001 		movw	r1, #:lower16:.LC8
 246 013c C0F20001 		movt	r1, #:upper16:.LC8
 247 0140 2246     		mov	r2, r4
 248 0142 FFF7FEFF 		bl	sprintf
  77:.\main.c      ****                 LCD_Position(0u, 0u);
 249              		.loc 1 77 0
 250 0146 4FF00000 		mov	r0, #0
 251 014a 4FF00001 		mov	r1, #0
 252 014e FFF7FEFF 		bl	LCD_Position
  78:.\main.c      ****                 LCD_PrintString("                    ");
 253              		.loc 1 78 0
 254 0152 40F20000 		movw	r0, #:lower16:.LC9
 255 0156 C0F20000 		movt	r0, #:upper16:.LC9
 256 015a FFF7FEFF 		bl	LCD_PrintString
  79:.\main.c      ****                 LCD_Position(0u, 0u);
 257              		.loc 1 79 0
 258 015e 4FF00000 		mov	r0, #0
 259 0162 4FF00001 		mov	r1, #0
 260 0166 FFF7FEFF 		bl	LCD_Position
  80:.\main.c      ****                 LCD_PrintString(lineStr);
 261              		.loc 1 80 0
 262 016a 07F10403 		add	r3, r7, #4
 263 016e 1846     		mov	r0, r3
 264 0170 FFF7FEFF 		bl	LCD_PrintString
  81:.\main.c      ****                 sprintf(lineStr,"SB:%s,Parity:%s", stop[(uint16)USBUART_1_GetCharFormat()], \
 265              		.loc 1 81 0
 266 0174 FFF7FEFF 		bl	USBUART_1_GetCharFormat
 267 0178 0346     		mov	r3, r0
 268 017a 1A46     		mov	r2, r3
 269 017c 40F20003 		movw	r3, #:lower16:stop
 270 0180 C0F20003 		movt	r3, #:upper16:stop
 271 0184 53F82240 		ldr	r4, [r3, r2, lsl #2]
  82:.\main.c      ****                                                      parity[(uint16)USBUART_1_GetParityType()]);
 272              		.loc 1 82 0
 273 0188 FFF7FEFF 		bl	USBUART_1_GetParityType
 274 018c 0346     		mov	r3, r0
  81:.\main.c      ****                 sprintf(lineStr,"SB:%s,Parity:%s", stop[(uint16)USBUART_1_GetCharFormat()], \
 275              		.loc 1 81 0
ARM GAS  C:\Users\jissyai\AppData\Local\Temp\cceCgZrP.s 			page 9


 276 018e 1A46     		mov	r2, r3
 277 0190 40F20003 		movw	r3, #:lower16:parity
 278 0194 C0F20003 		movt	r3, #:upper16:parity
 279 0198 53F82230 		ldr	r3, [r3, r2, lsl #2]
 280 019c 07F10402 		add	r2, r7, #4
 281 01a0 1046     		mov	r0, r2
 282 01a2 40F20001 		movw	r1, #:lower16:.LC10
 283 01a6 C0F20001 		movt	r1, #:upper16:.LC10
 284 01aa 2246     		mov	r2, r4
 285 01ac FFF7FEFF 		bl	sprintf
  83:.\main.c      ****                 LCD_Position(1u, 0u);
 286              		.loc 1 83 0
 287 01b0 4FF00100 		mov	r0, #1
 288 01b4 4FF00001 		mov	r1, #0
 289 01b8 FFF7FEFF 		bl	LCD_Position
  84:.\main.c      ****                 LCD_PrintString("                    ");
 290              		.loc 1 84 0
 291 01bc 40F20000 		movw	r0, #:lower16:.LC9
 292 01c0 C0F20000 		movt	r0, #:upper16:.LC9
 293 01c4 FFF7FEFF 		bl	LCD_PrintString
  85:.\main.c      ****                 LCD_Position(1u, 0u);
 294              		.loc 1 85 0
 295 01c8 4FF00100 		mov	r0, #1
 296 01cc 4FF00001 		mov	r1, #0
 297 01d0 FFF7FEFF 		bl	LCD_Position
  86:.\main.c      ****                 LCD_PrintString(lineStr);
 298              		.loc 1 86 0
 299 01d4 07F10403 		add	r3, r7, #4
 300 01d8 1846     		mov	r0, r3
 301 01da FFF7FEFF 		bl	LCD_PrintString
 302              	.L6:
  88:.\main.c      ****             if(state & USBUART_1_LINE_CONTROL_CHANGED)
 303              		.loc 1 88 0
 304 01de 97F82B32 		ldrb	r3, [r7, #555]	@ zero_extendqisi2
 305 01e2 03F00203 		and	r3, r3, #2
 306 01e6 002B     		cmp	r3, #0
 307 01e8 42D0     		beq	.L5
  90:.\main.c      ****                 state = USBUART_1_GetLineControl();
 308              		.loc 1 90 0
 309 01ea FFF7FEFF 		bl	USBUART_1_GetLineControl
 310 01ee 0346     		mov	r3, r0
 311 01f0 87F82B32 		strb	r3, [r7, #555]
  91:.\main.c      ****                 sprintf(lineStr,"DTR:%s,RTS:%s",  (state & USBUART_1_LINE_CONTROL_DTR) ? "ON" : "OF
 312              		.loc 1 91 0
 313 01f4 97F82B32 		ldrb	r3, [r7, #555]	@ zero_extendqisi2
 314 01f8 03F00103 		and	r3, r3, #1
 315 01fc 002B     		cmp	r3, #0
 316 01fe 04D0     		beq	.L7
  91:.\main.c      ****                 sprintf(lineStr,"DTR:%s,RTS:%s",  (state & USBUART_1_LINE_CONTROL_DTR) ? "ON" : "OF
 317              		.loc 1 91 0 is_stmt 0 discriminator 1
 318 0200 40F20002 		movw	r2, #:lower16:.LC11
 319 0204 C0F20002 		movt	r2, #:upper16:.LC11
 320 0208 03E0     		b	.L8
 321              	.L7:
  91:.\main.c      ****                 sprintf(lineStr,"DTR:%s,RTS:%s",  (state & USBUART_1_LINE_CONTROL_DTR) ? "ON" : "OF
 322              		.loc 1 91 0 discriminator 2
 323 020a 40F20002 		movw	r2, #:lower16:.LC12
ARM GAS  C:\Users\jissyai\AppData\Local\Temp\cceCgZrP.s 			page 10


 324 020e C0F20002 		movt	r2, #:upper16:.LC12
 325              	.L8:
  92:.\main.c      ****                                                     (state & USBUART_1_LINE_CONTROL_RTS) ? "ON" : "
 326              		.loc 1 92 0 is_stmt 1 discriminator 3
 327 0212 97F82B32 		ldrb	r3, [r7, #555]	@ zero_extendqisi2
 328 0216 03F00203 		and	r3, r3, #2
  91:.\main.c      ****                 sprintf(lineStr,"DTR:%s,RTS:%s",  (state & USBUART_1_LINE_CONTROL_DTR) ? "ON" : "OF
 329              		.loc 1 91 0 discriminator 3
 330 021a 002B     		cmp	r3, #0
 331 021c 04D0     		beq	.L9
  91:.\main.c      ****                 sprintf(lineStr,"DTR:%s,RTS:%s",  (state & USBUART_1_LINE_CONTROL_DTR) ? "ON" : "OF
 332              		.loc 1 91 0 is_stmt 0 discriminator 4
 333 021e 40F20003 		movw	r3, #:lower16:.LC11
 334 0222 C0F20003 		movt	r3, #:upper16:.LC11
 335 0226 03E0     		b	.L10
 336              	.L9:
  91:.\main.c      ****                 sprintf(lineStr,"DTR:%s,RTS:%s",  (state & USBUART_1_LINE_CONTROL_DTR) ? "ON" : "OF
 337              		.loc 1 91 0 discriminator 5
 338 0228 40F20003 		movw	r3, #:lower16:.LC12
 339 022c C0F20003 		movt	r3, #:upper16:.LC12
 340              	.L10:
  91:.\main.c      ****                 sprintf(lineStr,"DTR:%s,RTS:%s",  (state & USBUART_1_LINE_CONTROL_DTR) ? "ON" : "OF
 341              		.loc 1 91 0 discriminator 6
 342 0230 07F10401 		add	r1, r7, #4
 343 0234 0846     		mov	r0, r1
 344 0236 40F20001 		movw	r1, #:lower16:.LC13
 345 023a C0F20001 		movt	r1, #:upper16:.LC13
 346 023e FFF7FEFF 		bl	sprintf
  93:.\main.c      ****                 LCD_Position(1u, 0u);
 347              		.loc 1 93 0 is_stmt 1 discriminator 6
 348 0242 4FF00100 		mov	r0, #1
 349 0246 4FF00001 		mov	r1, #0
 350 024a FFF7FEFF 		bl	LCD_Position
  94:.\main.c      ****                 LCD_PrintString("                    ");
 351              		.loc 1 94 0 discriminator 6
 352 024e 40F20000 		movw	r0, #:lower16:.LC9
 353 0252 C0F20000 		movt	r0, #:upper16:.LC9
 354 0256 FFF7FEFF 		bl	LCD_PrintString
  95:.\main.c      ****                 LCD_Position(1u, 0u);
 355              		.loc 1 95 0 discriminator 6
 356 025a 4FF00100 		mov	r0, #1
 357 025e 4FF00001 		mov	r1, #0
 358 0262 FFF7FEFF 		bl	LCD_Position
  96:.\main.c      ****                 LCD_PrintString(lineStr);
 359              		.loc 1 96 0 discriminator 6
 360 0266 07F10403 		add	r3, r7, #4
 361 026a 1846     		mov	r0, r3
 362 026c FFF7FEFF 		bl	LCD_PrintString
 363              	.L5:
 101:.\main.c      ****         ADC_IsEndConversion(ADC_WAIT_FOR_RESULT);
 364              		.loc 1 101 0
 365 0270 4FF00000 		mov	r0, #0
 366 0274 FFF7FEFF 		bl	ADC_IsEndConversion
 102:.\main.c      ****         result = ADC_GetResult32();
 367              		.loc 1 102 0
 368 0278 FFF7FEFF 		bl	ADC_GetResult32
 369 027c C7F83402 		str	r0, [r7, #564]
ARM GAS  C:\Users\jissyai\AppData\Local\Temp\cceCgZrP.s 			page 11


 104:.\main.c      ****         diff = abs(averageCounts - result);
 370              		.loc 1 104 0
 371 0280 D7F83C22 		ldr	r2, [r7, #572]
 372 0284 D7F83432 		ldr	r3, [r7, #564]
 373 0288 D31A     		subs	r3, r2, r3
 374 028a 002B     		cmp	r3, #0
 375 028c B8BF     		it	lt
 376 028e 5B42     		rsblt	r3, r3, #0
 377 0290 A7F83232 		strh	r3, [r7, #562]	@ movhi
 106:.\main.c      ****         if(diff > SIGNAL_SLOPE)
 378              		.loc 1 106 0
 379 0294 B7F93232 		ldrsh	r3, [r7, #562]
 380 0298 B3F57A7F 		cmp	r3, #1000
 381 029c 26DD     		ble	.L11
 108:.\main.c      ****             for(i = 0; i < MAX_SAMPLE; i++)
 382              		.loc 1 108 0
 383 029e 4FF00003 		mov	r3, #0
 384 02a2 87F84732 		strb	r3, [r7, #583]
 385 02a6 0DE0     		b	.L12
 386              	.L13:
 110:.\main.c      ****                 adcCounts[i] = result;
 387              		.loc 1 110 0 discriminator 2
 388 02a8 97F84722 		ldrb	r2, [r7, #583]	@ zero_extendqisi2
 389 02ac 07F12803 		add	r3, r7, #40
 390 02b0 D7F83412 		ldr	r1, [r7, #564]
 391 02b4 43F82210 		str	r1, [r3, r2, lsl #2]
 108:.\main.c      ****             for(i = 0; i < MAX_SAMPLE; i++)
 392              		.loc 1 108 0 discriminator 2
 393 02b8 97F84732 		ldrb	r3, [r7, #583]
 394 02bc 03F10103 		add	r3, r3, #1
 395 02c0 87F84732 		strb	r3, [r7, #583]
 396              	.L12:
 108:.\main.c      ****             for(i = 0; i < MAX_SAMPLE; i++)
 397              		.loc 1 108 0 is_stmt 0 discriminator 1
 398 02c4 97F84732 		ldrb	r3, [r7, #583]	@ zero_extendqisi2
 399 02c8 5BB2     		sxtb	r3, r3
 400 02ca 002B     		cmp	r3, #0
 401 02cc ECDA     		bge	.L13
 113:.\main.c      ****             sum = result << DIV;
 402              		.loc 1 113 0 is_stmt 1
 403 02ce D7F83432 		ldr	r3, [r7, #564]
 404 02d2 4FEAC313 		lsl	r3, r3, #7
 405 02d6 C7F84032 		str	r3, [r7, #576]
 115:.\main.c      ****             averageCounts = result;
 406              		.loc 1 115 0
 407 02da D7F83432 		ldr	r3, [r7, #564]
 408 02de C7F83C32 		str	r3, [r7, #572]
 116:.\main.c      ****             index = 0;
 409              		.loc 1 116 0
 410 02e2 4FF00003 		mov	r3, #0
 411 02e6 87F83B32 		strb	r3, [r7, #571]
 412 02ea 2DE0     		b	.L14
 413              	.L11:
 121:.\main.c      ****             sum = sum - adcCounts[index];
 414              		.loc 1 121 0
 415 02ec 97F83B22 		ldrb	r2, [r7, #571]	@ zero_extendqisi2
 416 02f0 07F12803 		add	r3, r7, #40
ARM GAS  C:\Users\jissyai\AppData\Local\Temp\cceCgZrP.s 			page 12


 417 02f4 53F82230 		ldr	r3, [r3, r2, lsl #2]
 418 02f8 D7F84022 		ldr	r2, [r7, #576]
 419 02fc D31A     		subs	r3, r2, r3
 420 02fe C7F84032 		str	r3, [r7, #576]
 122:.\main.c      ****             sum = sum + result;
 421              		.loc 1 122 0
 422 0302 D7F84022 		ldr	r2, [r7, #576]
 423 0306 D7F83432 		ldr	r3, [r7, #564]
 424 030a D318     		adds	r3, r2, r3
 425 030c C7F84032 		str	r3, [r7, #576]
 123:.\main.c      ****             averageCounts = sum >> DIV;
 426              		.loc 1 123 0
 427 0310 D7F84032 		ldr	r3, [r7, #576]
 428 0314 4FEAE313 		asr	r3, r3, #7
 429 0318 C7F83C32 		str	r3, [r7, #572]
 125:.\main.c      ****             adcCounts[index] = result;
 430              		.loc 1 125 0
 431 031c 97F83B22 		ldrb	r2, [r7, #571]	@ zero_extendqisi2
 432 0320 07F12803 		add	r3, r7, #40
 433 0324 D7F83412 		ldr	r1, [r7, #564]
 434 0328 43F82210 		str	r1, [r3, r2, lsl #2]
 126:.\main.c      ****             index++;
 435              		.loc 1 126 0
 436 032c 97F83B32 		ldrb	r3, [r7, #571]
 437 0330 03F10103 		add	r3, r3, #1
 438 0334 87F83B32 		strb	r3, [r7, #571]
 127:.\main.c      ****             if (index == MAX_SAMPLE)
 439              		.loc 1 127 0
 440 0338 97F83B32 		ldrb	r3, [r7, #571]	@ zero_extendqisi2
 441 033c 802B     		cmp	r3, #128
 442 033e 03D1     		bne	.L14
 129:.\main.c      ****                 index = 0;
 443              		.loc 1 129 0
 444 0340 4FF00003 		mov	r3, #0
 445 0344 87F83B32 		strb	r3, [r7, #571]
 446              	.L14:
 132:.\main.c      ****         microVolts = ADC_CountsTo_uVolts(averageCounts);
 447              		.loc 1 132 0
 448 0348 D7F83C02 		ldr	r0, [r7, #572]
 449 034c FFF7FEFF 		bl	ADC_CountsTo_uVolts
 450 0350 C7F82C02 		str	r0, [r7, #556]
 135:.\main.c      **** 		if(SW_Read()==0){
 451              		.loc 1 135 0
 452 0354 FFF7FEFF 		bl	SW_Read
 453 0358 0346     		mov	r3, r0
 454 035a 002B     		cmp	r3, #0
 455 035c 7FF4D2AE 		bne	.L17
 136:.\main.c      **** 			USBUART_1_PutString("ADC input volt = ");
 456              		.loc 1 136 0
 457 0360 40F20000 		movw	r0, #:lower16:.LC14
 458 0364 C0F20000 		movt	r0, #:upper16:.LC14
 459 0368 FFF7FEFF 		bl	USBUART_1_PutString
 137:.\main.c      **** 			CyDelay(10);
 460              		.loc 1 137 0
 461 036c 4FF00A00 		mov	r0, #10
 462 0370 FFF7FEFF 		bl	CyDelay
 138:.\main.c      **** 			sprintf(displayStr,"%7ld",microVolts);
ARM GAS  C:\Users\jissyai\AppData\Local\Temp\cceCgZrP.s 			page 13


 463              		.loc 1 138 0
 464 0374 07F11803 		add	r3, r7, #24
 465 0378 1846     		mov	r0, r3
 466 037a 40F20001 		movw	r1, #:lower16:.LC15
 467 037e C0F20001 		movt	r1, #:upper16:.LC15
 468 0382 D7F82C22 		ldr	r2, [r7, #556]
 469 0386 FFF7FEFF 		bl	sprintf
 139:.\main.c      **** 			USBUART_1_PutString(displayStr);
 470              		.loc 1 139 0
 471 038a 07F11803 		add	r3, r7, #24
 472 038e 1846     		mov	r0, r3
 473 0390 FFF7FEFF 		bl	USBUART_1_PutString
 140:.\main.c      **** 			CyDelay(10);
 474              		.loc 1 140 0
 475 0394 4FF00A00 		mov	r0, #10
 476 0398 FFF7FEFF 		bl	CyDelay
 141:.\main.c      **** 			USBUART_1_PutString("uV");
 477              		.loc 1 141 0
 478 039c 40F20000 		movw	r0, #:lower16:.LC16
 479 03a0 C0F20000 		movt	r0, #:upper16:.LC16
 480 03a4 FFF7FEFF 		bl	USBUART_1_PutString
 142:.\main.c      **** 			CyDelay(10);
 481              		.loc 1 142 0
 482 03a8 4FF00A00 		mov	r0, #10
 483 03ac FFF7FEFF 		bl	CyDelay
 143:.\main.c      **** 			USBUART_1_PutCRLF();
 484              		.loc 1 143 0
 485 03b0 FFF7FEFF 		bl	USBUART_1_PutCRLF
 144:.\main.c      **** 			CyDelay(1000);
 486              		.loc 1 144 0
 487 03b4 4FF47A70 		mov	r0, #1000
 488 03b8 FFF7FEFF 		bl	CyDelay
 489              		.loc 1 146 0
 490 03bc A2E6     		b	.L17
 491              		.cfi_endproc
 492              	.LFE56:
 493              		.size	main, .-main
 494 03be 00BF     		.text
 495              	.Letext0:
 496              		.file 2 "c:\\program files (x86)\\cypress\\psoc creator\\3.0\\psoc creator\\import\\gnu_cs\\arm\\4
 497              		.file 3 "./Generated_Source/PSoC5/cytypes.h"
 498              		.file 4 "./Generated_Source/PSoC5/core_cm3.h"